target datalayout = "e-m:e-p270:32:32-p271:32:32-p272:64:64-i64:64-i128:128-f80:128-n8:16:32:64-S128"
target triple = "x86_64-pc-linux-gnu"

@crypto_box_curve25519xchacha20poly1305_beforenm.zero = internal constant [16 x i8] zeroinitializer, align 16

; Function Attrs: nounwind ssp uwtable
define dso_local i32 @crypto_box_curve25519xchacha20poly1305_detached_afternm(ptr noundef nonnull %0, ptr noundef nonnull %1, ptr noundef %2, i64 noundef %3, ptr noundef nonnull %4, ptr noundef nonnull %5) #0 {
  %7 = alloca ptr, align 8
  %8 = alloca ptr, align 8
  %9 = alloca ptr, align 8
  %10 = alloca i64, align 8
  %11 = alloca ptr, align 8
  %12 = alloca ptr, align 8
  store ptr %0, ptr %7, align 8
  store ptr %1, ptr %8, align 8
  store ptr %2, ptr %9, align 8
  store i64 %3, ptr %10, align 8
  store ptr %4, ptr %11, align 8
  store ptr %5, ptr %12, align 8
  %13 = load ptr, ptr %7, align 8
  %14 = load ptr, ptr %8, align 8
  %15 = load ptr, ptr %9, align 8
  %16 = load i64, ptr %10, align 8
  %17 = load ptr, ptr %11, align 8
  %18 = load ptr, ptr %12, align 8
  %19 = call i32 @crypto_secretbox_xchacha20poly1305_detached(ptr noundef %13, ptr noundef %14, ptr noundef %15, i64 noundef %16, ptr noundef %17, ptr noundef %18)
  ret i32 %19
}

; Function Attrs: nounwind ssp uwtable
define dso_local i32 @crypto_box_curve25519xchacha20poly1305_beforenm(ptr noundef nonnull %0, ptr noundef nonnull %1, ptr noundef nonnull %2) #0 {
  %4 = alloca i32, align 4
  %5 = alloca ptr, align 8
  %6 = alloca ptr, align 8
  %7 = alloca ptr, align 8
  %8 = alloca [32 x i8], align 16
  %9 = alloca i32, align 4
  store ptr %0, ptr %5, align 8
  store ptr %1, ptr %6, align 8
  store ptr %2, ptr %7, align 8
  call void @llvm.lifetime.start.p0(i64 32, ptr %8) #7
  %10 = getelementptr inbounds [32 x i8], ptr %8, i64 0, i64 0
  %11 = load ptr, ptr %7, align 8
  %12 = load ptr, ptr %6, align 8
  %13 = call i32 @crypto_scalarmult_curve25519(ptr noundef %10, ptr noundef %11, ptr noundef %12)
  %14 = icmp ne i32 %13, 0
  br i1 %14, label %15, label %16

15:                                               ; preds = %3
  store i32 -1, ptr %4, align 4
  store i32 1, ptr %9, align 4
  br label %20

16:                                               ; preds = %3
  %17 = load ptr, ptr %5, align 8
  %18 = getelementptr inbounds [32 x i8], ptr %8, i64 0, i64 0
  %19 = call i32 @crypto_core_hchacha20(ptr noundef %17, ptr noundef @crypto_box_curve25519xchacha20poly1305_beforenm.zero, ptr noundef %18, ptr noundef null)
  store i32 %19, ptr %4, align 4
  store i32 1, ptr %9, align 4
  br label %20

20:                                               ; preds = %16, %15
  call void @llvm.lifetime.end.p0(i64 32, ptr %8) #7
  %21 = load i32, ptr %4, align 4
  ret i32 %21
}

; Function Attrs: nounwind ssp uwtable
define dso_local i32 @crypto_box_curve25519xchacha20poly1305_detached(ptr noundef nonnull %0, ptr noundef nonnull %1, ptr noundef %2, i64 noundef %3, ptr noundef nonnull %4, ptr noundef nonnull %5, ptr noundef nonnull %6) #0 {
  %8 = alloca i32, align 4
  %9 = alloca ptr, align 8
  %10 = alloca ptr, align 8
  %11 = alloca ptr, align 8
  %12 = alloca i64, align 8
  %13 = alloca ptr, align 8
  %14 = alloca ptr, align 8
  %15 = alloca ptr, align 8
  %16 = alloca [32 x i8], align 16
  %17 = alloca i32, align 4
  %18 = alloca i32, align 4
  store ptr %0, ptr %9, align 8
  store ptr %1, ptr %10, align 8
  store ptr %2, ptr %11, align 8
  store i64 %3, ptr %12, align 8
  store ptr %4, ptr %13, align 8
  store ptr %5, ptr %14, align 8
  store ptr %6, ptr %15, align 8
  call void @llvm.lifetime.start.p0(i64 32, ptr %16) #7
  call void @llvm.lifetime.start.p0(i64 4, ptr %17) #7
  %19 = getelementptr inbounds [32 x i8], ptr %16, i64 0, i64 0
  %20 = load ptr, ptr %14, align 8
  %21 = load ptr, ptr %15, align 8
  %22 = call i32 @crypto_box_curve25519xchacha20poly1305_beforenm(ptr noundef %19, ptr noundef %20, ptr noundef %21)
  %23 = icmp ne i32 %22, 0
  br i1 %23, label %24, label %25

24:                                               ; preds = %7
  store i32 -1, ptr %8, align 4
  store i32 1, ptr %18, align 4
  br label %35

25:                                               ; preds = %7
  %26 = load ptr, ptr %9, align 8
  %27 = load ptr, ptr %10, align 8
  %28 = load ptr, ptr %11, align 8
  %29 = load i64, ptr %12, align 8
  %30 = load ptr, ptr %13, align 8
  %31 = getelementptr inbounds [32 x i8], ptr %16, i64 0, i64 0
  %32 = call i32 @crypto_box_curve25519xchacha20poly1305_detached_afternm(ptr noundef %26, ptr noundef %27, ptr noundef %28, i64 noundef %29, ptr noundef %30, ptr noundef %31)
  store i32 %32, ptr %17, align 4
  %33 = getelementptr inbounds [32 x i8], ptr %16, i64 0, i64 0
  call void @sodium_memzero(ptr noundef %33, i64 noundef 32)
  %34 = load i32, ptr %17, align 4
  store i32 %34, ptr %8, align 4
  store i32 1, ptr %18, align 4
  br label %35

35:                                               ; preds = %25, %24
  call void @llvm.lifetime.end.p0(i64 4, ptr %17) #7
  call void @llvm.lifetime.end.p0(i64 32, ptr %16) #7
  %36 = load i32, ptr %8, align 4
  ret i32 %36
}